; ModuleID = '54/644.c'
source_filename = "54/644.c"
target datalayout = "e-m:e-p270:32:32-p271:32:32-p272:64:64-i64:64-f80:128-n8:16:32:64-S128"
target triple = "x86_64-pc-linux-gnu"

@.str = private unnamed_addr constant [5 x i8] c"%d%d\00", align 1
@.str.1 = private unnamed_addr constant [3 x i8] c"%d\00", align 1

; Function Attrs: noinline nounwind uwtable
define dso_local i32 @first(i32 %0, i32 %1) #0 {
  %3 = alloca i32, align 4
  %4 = alloca i32, align 4
  %5 = alloca i32, align 4
  %6 = alloca i32, align 4
  %7 = alloca i32, align 4
  %8 = alloca i32, align 4
  store i32 %0, i32* %3, align 4
  store i32 %1, i32* %4, align 4
  store i32 1, i32* %6, align 4
  br label %9

9:                                                ; preds = %48, %2
  %10 = load i32, i32* %6, align 4
  %11 = load i32, i32* %3, align 4
  %12 = mul nsw i32 %10, %11
  %13 = load i32, i32* %4, align 4
  %14 = load i32, i32* %3, align 4
  %15 = mul nsw i32 %13, %14
  %16 = add nsw i32 %12, %15
  store i32 %16, i32* %5, align 4
  store i32 1, i32* %7, align 4
  br label %17

17:                                               ; preds = %34, %9
  %18 = load i32, i32* %7, align 4
  %19 = load i32, i32* %3, align 4
  %20 = icmp slt i32 %18, %19
  br i1 %20, label %21, label %37

21:                                               ; preds = %17
  %22 = load i32, i32* %5, align 4
  %23 = load i32, i32* %3, align 4
  %24 = mul nsw i32 %22, %23
  %25 = load i32, i32* %3, align 4
  %26 = sub nsw i32 %25, 1
  %27 = sdiv i32 %24, %26
  store i32 %27, i32* %5, align 4
  %28 = load i32, i32* %5, align 4
  %29 = load i32, i32* %3, align 4
  %30 = srem i32 %28, %29
  %31 = icmp ne i32 %30, 0
  br i1 %31, label %32, label %33

32:                                               ; preds = %21
  br label %37

33:                                               ; preds = %21
  br label %34

34:                                               ; preds = %33
  %35 = load i32, i32* %7, align 4
  %36 = add nsw i32 %35, 1
  store i32 %36, i32* %7, align 4
  br label %17

37:                                               ; preds = %32, %17
  %38 = load i32, i32* %7, align 4
  %39 = load i32, i32* %3, align 4
  %40 = icmp eq i32 %38, %39
  br i1 %40, label %41, label %47

41:                                               ; preds = %37
  %42 = load i32, i32* %6, align 4
  %43 = load i32, i32* %3, align 4
  %44 = mul nsw i32 %42, %43
  %45 = load i32, i32* %4, align 4
  %46 = add nsw i32 %44, %45
  store i32 %46, i32* %8, align 4
  br label %51

47:                                               ; preds = %37
  br label %48

48:                                               ; preds = %47
  %49 = load i32, i32* %6, align 4
  %50 = add nsw i32 %49, 1
  store i32 %50, i32* %6, align 4
  br label %9

51:                                               ; preds = %41
  %52 = load i32, i32* %8, align 4
  ret i32 %52
}

; Function Attrs: noinline nounwind uwtable
define dso_local i32 @houzi(i32 %0, i32 %1, i32 %2) #0 {
  %4 = alloca i32, align 4
  %5 = alloca i32, align 4
  %6 = alloca i32, align 4
  %7 = alloca i32, align 4
  store i32 %0, i32* %4, align 4
  store i32 %1, i32* %5, align 4
  store i32 %2, i32* %6, align 4
  %8 = load i32, i32* %4, align 4
  %9 = icmp ne i32 %8, 1
  br i1 %9, label %10, label %23

10:                                               ; preds = %3
  %11 = load i32, i32* %4, align 4
  %12 = sub nsw i32 %11, 1
  %13 = load i32, i32* %5, align 4
  %14 = load i32, i32* %6, align 4
  %15 = call i32 @houzi(i32 %12, i32 %13, i32 %14)
  %16 = load i32, i32* %6, align 4
  %17 = mul nsw i32 %15, %16
  %18 = load i32, i32* %6, align 4
  %19 = sub nsw i32 %18, 1
  %20 = sdiv i32 %17, %19
  %21 = load i32, i32* %5, align 4
  %22 = add nsw i32 %20, %21
  store i32 %22, i32* %7, align 4
  br label %23

23:                                               ; preds = %10, %3
  %24 = load i32, i32* %4, align 4
  %25 = icmp eq i32 %24, 1
  br i1 %25, label %26, label %30

26:                                               ; preds = %23
  %27 = load i32, i32* %6, align 4
  %28 = load i32, i32* %5, align 4
  %29 = call i32 @first(i32 %27, i32 %28)
  store i32 %29, i32* %7, align 4
  br label %30

30:                                               ; preds = %26, %23
  %31 = load i32, i32* %7, align 4
  ret i32 %31
}

; Function Attrs: noinline nounwind uwtable
define dso_local void @main() #0 {
  %1 = alloca i32, align 4
  %2 = alloca i32, align 4
  %3 = call i32 (i8*, ...) @__isoc99_scanf(i8* getelementptr inbounds ([5 x i8], [5 x i8]* @.str, i64 0, i64 0), i32* %1, i32* %2)
  %4 = load i32, i32* %1, align 4
  %5 = load i32, i32* %2, align 4
  %6 = load i32, i32* %1, align 4
  %7 = call i32 @houzi(i32 %4, i32 %5, i32 %6)
  %8 = call i32 (i8*, ...) @printf(i8* getelementptr inbounds ([3 x i8], [3 x i8]* @.str.1, i64 0, i64 0), i32 %7)
  ret void
}

declare dso_local i32 @__isoc99_scanf(i8*, ...) #1

declare dso_local i32 @printf(i8*, ...) #1


!llvm.module.flags = !{!0}
!llvm.ident = !{!1}

!0 = !{i32 1, !"wchar_size", i32 4}
!1 = !{!"clang version 10.0.0-4ubuntu1 "}
